; Function Attrs: nounwind uwtable
define internal ptr @sm4_xts_dupctx(ptr noundef %0) #0 {
  %2 = tail call i32 @ossl_prov_is_running() #4
  %.not = icmp eq i32 %2, 0
  br i1 %.not, label %19, label %3

3:                                                ; preds = %1
  %4 = getelementptr inbounds nuw i8, ptr %0, i64 456
  %5 = load ptr, ptr %4, align 8, !tbaa !7
  %.not16 = icmp eq ptr %5, null
  %6 = getelementptr inbounds nuw i8, ptr %0, i64 192
  %.not17 = icmp eq ptr %5, %6
  %or.cond = select i1 %.not16, i1 true, i1 %.not17
  br i1 %or.cond, label %7, label %19

7:                                                ; preds = %3
  %8 = getelementptr inbounds nuw i8, ptr %0, i64 464
  %9 = load ptr, ptr %8, align 8, !tbaa !16
  %.not18 = icmp eq ptr %9, null
  %10 = getelementptr inbounds nuw i8, ptr %0, i64 320
  %.not19 = icmp eq ptr %9, %10
  %or.cond20 = select i1 %.not18, i1 true, i1 %.not19
  br i1 %or.cond20, label %11, label %19

11:                                               ; preds = %7
  %12 = tail call noalias ptr @CRYPTO_malloc(i64 noundef 504, ptr noundef nonnull @.str, i32 noundef 114) #4
  %13 = icmp eq ptr %12, null
  br i1 %13, label %19, label %14

14:                                               ; preds = %11
  %15 = getelementptr inbounds nuw i8, ptr %0, i64 168
  %16 = load ptr, ptr %15, align 8, !tbaa !20
  %17 = getelementptr inbounds nuw i8, ptr %16, i64 16
  %18 = load ptr, ptr %17, align 8, !tbaa !21
  tail call void %18(ptr noundef nonnull %12, ptr noundef nonnull %0) #4
  br label %19

19:                                               ; preds = %11, %7, %3, %1, %14
  %.0 = phi ptr [ %12, %14 ], [ null, %1 ], [ null, %3 ], [ null, %7 ], [ null, %11 ]
  ret ptr %.0
}